target datalayout = "e-m:e-p270:32:32-p271:32:32-p272:64:64-i64:64-i128:128-f80:128-n8:16:32:64-S128"
target triple = "x86_64-pc-linux-gnu"

%"class.cv::utils::trace::details::Region" = type <{ ptr, i32, [4 x i8] }>
%"class.cv::Range" = type { i32, i32 }
%"class.cv::impl::(anonymous namespace)::CvtColorLoop_Invoker" = type { %"class.cv::ParallelLoopBody", ptr, i64, ptr, i64, i32, ptr }
%"class.cv::ParallelLoopBody" = type { ptr }

; Function Attrs: mustprogress uwtable
define internal void @_ZNK2cv4impl12_GLOBAL__N_120CvtColorLoop_InvokerINS_9RGB2XYZ_iIhEEEclERKNS_5RangeE(ptr noundef nonnull align 8 dereferenceable(56) %0, ptr noundef nonnull align 4 dereferenceable(8) %1) unnamed_addr #1 align 2 personality ptr @__gxx_personality_v0 {
  %3 = alloca ptr, align 8
  %4 = alloca ptr, align 8
  %5 = alloca %"class.cv::utils::trace::details::Region", align 8
  %6 = alloca ptr, align 8
  %7 = alloca ptr, align 8
  %8 = alloca i32, align 4
  %9 = alloca ptr, align 8
  %10 = alloca i32, align 4
  store ptr %0, ptr %3, align 8, !tbaa !290
  store ptr %1, ptr %4, align 8, !tbaa !285
  %11 = load ptr, ptr %3, align 8
  call void @llvm.lifetime.start.p0(i64 16, ptr %5) #12
  call void @_ZN2cv5utils5trace7details6RegionC1ERKNS3_21LocationStaticStorageE(ptr noundef nonnull align 8 dereferenceable(12) %5, ptr noundef nonnull align 8 dereferenceable(32) @_ZZNK2cv4impl12_GLOBAL__N_120CvtColorLoop_InvokerINS_9RGB2XYZ_iIhEEEclERKNS_5RangeEE25__cv_trace_location_fn146)
  call void @llvm.lifetime.start.p0(i64 8, ptr %6) #12
  %12 = getelementptr inbounds nuw %"class.cv::impl::(anonymous namespace)::CvtColorLoop_Invoker", ptr %11, i32 0, i32 1
  %13 = load ptr, ptr %12, align 8, !tbaa !294
  %14 = load ptr, ptr %4, align 8, !tbaa !285
  %15 = getelementptr inbounds nuw %"class.cv::Range", ptr %14, i32 0, i32 0
  %16 = load i32, ptr %15, align 4, !tbaa !287
  %17 = sext i32 %16 to i64
  %18 = getelementptr inbounds nuw %"class.cv::impl::(anonymous namespace)::CvtColorLoop_Invoker", ptr %11, i32 0, i32 2
  %19 = load i64, ptr %18, align 8, !tbaa !297
  %20 = mul i64 %17, %19
  %21 = getelementptr inbounds nuw i8, ptr %13, i64 %20
  store ptr %21, ptr %6, align 8, !tbaa !18
  call void @llvm.lifetime.start.p0(i64 8, ptr %7) #12
  %22 = getelementptr inbounds nuw %"class.cv::impl::(anonymous namespace)::CvtColorLoop_Invoker", ptr %11, i32 0, i32 3
  %23 = load ptr, ptr %22, align 8, !tbaa !298
  %24 = load ptr, ptr %4, align 8, !tbaa !285
  %25 = getelementptr inbounds nuw %"class.cv::Range", ptr %24, i32 0, i32 0
  %26 = load i32, ptr %25, align 4, !tbaa !287
  %27 = sext i32 %26 to i64
  %28 = getelementptr inbounds nuw %"class.cv::impl::(anonymous namespace)::CvtColorLoop_Invoker", ptr %11, i32 0, i32 4
  %29 = load i64, ptr %28, align 8, !tbaa !299
  %30 = mul i64 %27, %29
  %31 = getelementptr inbounds nuw i8, ptr %23, i64 %30
  store ptr %31, ptr %7, align 8, !tbaa !18
  call void @llvm.lifetime.start.p0(i64 4, ptr %8) #12
  %32 = load ptr, ptr %4, align 8, !tbaa !285
  %33 = getelementptr inbounds nuw %"class.cv::Range", ptr %32, i32 0, i32 0
  %34 = load i32, ptr %33, align 4, !tbaa !287
  store i32 %34, ptr %8, align 4, !tbaa !20
  br label %35

35:                                               ; preds = %50, %2
  %36 = load i32, ptr %8, align 4, !tbaa !20
  %37 = load ptr, ptr %4, align 8, !tbaa !285
  %38 = getelementptr inbounds nuw %"class.cv::Range", ptr %37, i32 0, i32 1
  %39 = load i32, ptr %38, align 4, !tbaa !289
  %40 = icmp slt i32 %36, %39
  br i1 %40, label %42, label %41

41:                                               ; preds = %35
  call void @llvm.lifetime.end.p0(i64 4, ptr %8) #12
  br label %65

42:                                               ; preds = %35
  %43 = getelementptr inbounds nuw %"class.cv::impl::(anonymous namespace)::CvtColorLoop_Invoker", ptr %11, i32 0, i32 6
  %44 = load ptr, ptr %43, align 8, !tbaa !303
  %45 = load ptr, ptr %6, align 8, !tbaa !18
  %46 = load ptr, ptr %7, align 8, !tbaa !18
  %47 = getelementptr inbounds nuw %"class.cv::impl::(anonymous namespace)::CvtColorLoop_Invoker", ptr %11, i32 0, i32 5
  %48 = load i32, ptr %47, align 8, !tbaa !300
  invoke void @_ZNK2cv9RGB2XYZ_iIhEclEPKhPhi(ptr noundef nonnull align 4 dereferenceable(40) %44, ptr noundef %45, ptr noundef %46, i32 noundef %48)
          to label %49 unwind label %61

49:                                               ; preds = %42
  br label %50

50:                                               ; preds = %49
  %51 = load i32, ptr %8, align 4, !tbaa !20
  %52 = add nsw i32 %51, 1
  store i32 %52, ptr %8, align 4, !tbaa !20
  %53 = getelementptr inbounds nuw %"class.cv::impl::(anonymous namespace)::CvtColorLoop_Invoker", ptr %11, i32 0, i32 2
  %54 = load i64, ptr %53, align 8, !tbaa !297
  %55 = load ptr, ptr %6, align 8, !tbaa !18
  %56 = getelementptr inbounds nuw i8, ptr %55, i64 %54
  store ptr %56, ptr %6, align 8, !tbaa !18
  %57 = getelementptr inbounds nuw %"class.cv::impl::(anonymous namespace)::CvtColorLoop_Invoker", ptr %11, i32 0, i32 4
  %58 = load i64, ptr %57, align 8, !tbaa !299
  %59 = load ptr, ptr %7, align 8, !tbaa !18
  %60 = getelementptr inbounds nuw i8, ptr %59, i64 %58
  store ptr %60, ptr %7, align 8, !tbaa !18
  br label %35, !llvm.loop !304

61:                                               ; preds = %42
  %62 = landingpad { ptr, i32 }
          cleanup
  %63 = extractvalue { ptr, i32 } %62, 0
  store ptr %63, ptr %9, align 8
  %64 = extractvalue { ptr, i32 } %62, 1
  store i32 %64, ptr %10, align 4
  call void @llvm.lifetime.end.p0(i64 4, ptr %8) #12
  call void @llvm.lifetime.end.p0(i64 8, ptr %7) #12
  call void @llvm.lifetime.end.p0(i64 8, ptr %6) #12
  call void @_ZN2cv5utils5trace7details6RegionD2Ev(ptr noundef nonnull align 8 dereferenceable(12) %5) #12
  call void @llvm.lifetime.end.p0(i64 16, ptr %5) #12
  br label %66

65:                                               ; preds = %41
  call void @llvm.lifetime.end.p0(i64 8, ptr %7) #12
  call void @llvm.lifetime.end.p0(i64 8, ptr %6) #12
  call void @_ZN2cv5utils5trace7details6RegionD2Ev(ptr noundef nonnull align 8 dereferenceable(12) %5) #12
  call void @llvm.lifetime.end.p0(i64 16, ptr %5) #12
  ret void

66:                                               ; preds = %61
  %67 = load ptr, ptr %9, align 8
  %68 = load i32, ptr %10, align 4
  %69 = insertvalue { ptr, i32 } poison, ptr %67, 0
  %70 = insertvalue { ptr, i32 } %69, i32 %68, 1
  resume { ptr, i32 } %70
}